target datalayout = "e-m:e-p270:32:32-p271:32:32-p272:64:64-i64:64-i128:128-f80:128-n8:16:32:64-S128"
target triple = "x86_64-unknown-linux-gnu"

%"class.v8::ReturnValue" = type { ptr }

; Function Attrs: mustprogress nounwind uwtable
define dso_local void @_ZN4node2fs13FSReqCallback14SetReturnValueERKN2v820FunctionCallbackInfoINS2_5ValueEEE(ptr noundef nonnull align 8 dereferenceable(648) %this, ptr noundef nonnull align 8 dereferenceable(20) %args) unnamed_addr #4 align 2 {
entry:
  %this.addr.i7 = alloca ptr, align 8
  %slot.addr.i = alloca ptr, align 8
  %this.addr.i4 = alloca ptr, align 8
  %isolate.addr.i.i = alloca ptr, align 8
  %index.addr.i.i = alloca i32, align 4
  %addr.i.i = alloca i64, align 8
  %isolate.addr.i = alloca ptr, align 8
  %index.addr.i = alloca i32, align 4
  %this.addr.i2 = alloca ptr, align 8
  %retval.i = alloca %"class.v8::ReturnValue", align 8
  %this.addr.i = alloca ptr, align 8
  %this.addr = alloca ptr, align 8
  %args.addr = alloca ptr, align 8
  %ref.tmp = alloca %"class.v8::ReturnValue", align 8
  store ptr %this, ptr %this.addr, align 8
  store ptr %args, ptr %args.addr, align 8
  %0 = load ptr, ptr %args.addr, align 8
  store ptr %0, ptr %this.addr.i, align 8
  %this1.i = load ptr, ptr %this.addr.i, align 8
  %1 = load ptr, ptr %this1.i, align 8
  %arrayidx.i = getelementptr inbounds i64, ptr %1, i64 3
  store ptr %retval.i, ptr %this.addr.i7, align 8
  store ptr %arrayidx.i, ptr %slot.addr.i, align 8
  %this1.i8 = load ptr, ptr %this.addr.i7, align 8
  %2 = load ptr, ptr %slot.addr.i, align 8
  store ptr %2, ptr %this1.i8, align 8
  %3 = load ptr, ptr %retval.i, align 8
  %coerce.dive = getelementptr inbounds %"class.v8::ReturnValue", ptr %ref.tmp, i32 0, i32 0
  store ptr %3, ptr %coerce.dive, align 8
  store ptr %ref.tmp, ptr %this.addr.i2, align 8
  %this1.i3 = load ptr, ptr %this.addr.i2, align 8
  store ptr %this1.i3, ptr %this.addr.i4, align 8
  %this1.i5 = load ptr, ptr %this.addr.i4, align 8
  %4 = load ptr, ptr %this1.i5, align 8
  %arrayidx.i6 = getelementptr inbounds i64, ptr %4, i64 -2
  %5 = load ptr, ptr %arrayidx.i6, align 8
  store ptr %5, ptr %isolate.addr.i, align 8
  store i32 4, ptr %index.addr.i, align 4
  %6 = load ptr, ptr %isolate.addr.i, align 8
  %7 = load i32, ptr %index.addr.i, align 4
  store ptr %6, ptr %isolate.addr.i.i, align 8
  store i32 %7, ptr %index.addr.i.i, align 4
  %8 = load ptr, ptr %isolate.addr.i.i, align 8
  %9 = ptrtoint ptr %8 to i64
  %add.i.i = add i64 %9, 576
  %10 = load i32, ptr %index.addr.i.i, align 4
  %mul.i.i = mul nsw i32 %10, 8
  %conv.i.i = sext i32 %mul.i.i to i64
  %add1.i.i = add i64 %add.i.i, %conv.i.i
  store i64 %add1.i.i, ptr %addr.i.i, align 8
  %11 = load i64, ptr %addr.i.i, align 8
  %12 = inttoptr i64 %11 to ptr
  %13 = load i64, ptr %12, align 8
  %14 = load ptr, ptr %this1.i3, align 8
  store i64 %13, ptr %14, align 8
  ret void
}