; Function Attrs: mustprogress nofree norecurse nosync nounwind willreturn memory(readwrite, inaccessiblemem: none) uwtable
define dso_local void @_ZN4node2fs13FSReqCallback14SetReturnValueERKN2v820FunctionCallbackInfoINS2_5ValueEEE(ptr nocapture nonnull readnone align 8 %this, ptr nocapture noundef nonnull readonly align 8 dereferenceable(20) %args) unnamed_addr #16 align 2 {
entry:
  %0 = load ptr, ptr %args, align 8
  %arrayidx.i = getelementptr inbounds i8, ptr %0, i64 24
  %arrayidx.i6 = getelementptr inbounds i8, ptr %0, i64 8
  %1 = load ptr, ptr %arrayidx.i6, align 8
  %2 = ptrtoint ptr %1 to i64
  %add1.i.i = add i64 %2, 608
  %3 = inttoptr i64 %add1.i.i to ptr
  %4 = load i64, ptr %3, align 8
  store i64 %4, ptr %arrayidx.i, align 8
  ret void
}